Certificate:
    Data:
        Version: 3 (0x2)
        Serial Number:
            d0:94:29:e1:74:7f:8c:5d:63:cc:a2:56:5d:31:ce:bc
    Signature Algorithm: sha256WithRSAEncryption
        Issuer: C=RU, ST=Moscow State, O=BMSTU, OU=IU4-13, CN=Kruglov Valentine
        Validity
            Not Before: Dec 17 17:58:40 2021 GMT
            Not After : Dec 17 17:58:40 2022 GMT
        Subject: C=RU, ST=Moscow State, O=BMSTU, OU=IU4-13, CN=Kruglov Valentine
        Subject Public Key Info:
            Public Key Algorithm: rsaEncryption
                Public-Key: (4096 bit)
                Modulus:
                    00:c0:e6:c0:9e:c0:26:2e:0e:a0:b8:ec:f4:5c:63:
                    5c:07:0e:3b:f9:3b:ee:1b:67:24:33:37:58:66:c3:
                    72:98:43:21:75:98:41:7f:1c:e5:50:92:5e:7a:61:
                    79:46:99:75:46:4a:41:3b:b5:ce:92:92:2c:cb:1f:
                    b3:db:70:8d:0e:79:a1:cc:94:9d:cd:e0:52:b3:17:
                    a5:f8:00:91:2b:92:a4:26:da:c8:97:4a:80:24:14:
                    d7:d3:ca:4e:8b:91:ae:5d:08:1c:db:fa:07:a8:05:
                    90:f7:53:b5:29:19:ec:e5:67:c9:78:db:0e:2f:9a:
                    75:cf:fa:c3:67:e4:d1:ac:1d:3c:46:4d:65:94:77:
                    6a:c2:54:48:c4:bb:7f:09:bb:16:8d:d4:18:81:6f:
                    30:a5:5b:94:2d:dd:f3:de:59:82:9e:02:63:5c:75:
                    53:d0:94:fd:dd:c7:a4:b1:90:0b:12:c7:8b:05:cc:
                    d8:4f:9e:b0:e1:29:7f:c4:b4:68:2d:67:3b:e7:8d:
                    45:54:bc:fb:a4:22:8f:43:ba:c0:70:14:b1:ad:04:
                    ed:38:0d:03:9d:2e:b0:aa:e9:c8:47:79:9b:6d:96:
                    37:db:91:2e:f5:48:ae:16:ff:6b:67:08:71:19:42:
                    a0:7e:d2:d4:87:2f:0c:11:8e:87:ef:da:ff:d3:a9:
                    f0:f9:96:83:a6:7f:90:7c:1c:21:d4:9c:0e:85:b1:
                    b0:8e:b4:97:9b:bd:5e:c1:89:f6:69:5c:ec:02:d5:
                    cc:95:ee:47:da:07:bc:9f:0a:c0:3c:2e:22:a9:fa:
                    06:a9:61:66:51:e3:3b:a0:56:31:53:90:b8:fd:bf:
                    7e:58:32:a8:27:7d:09:af:d6:76:1d:67:17:75:ac:
                    bc:78:a2:1d:79:11:b6:6f:5e:20:32:41:a4:7a:d3:
                    52:c5:3a:de:f8:80:24:1c:18:43:f2:49:d8:71:3d:
                    1f:f0:14:6a:08:6a:3e:07:22:51:dd:06:68:42:95:
                    ee:1f:e6:f4:be:6d:e8:3e:56:09:bb:50:c8:59:be:
                    cc:0a:4e:d2:9b:43:04:e0:91:61:b5:c2:51:0a:09:
                    14:35:52:2f:ef:0f:b0:ef:f3:f5:21:d0:5a:10:62:
                    a1:b7:a7:32:d2:be:5e:ce:e0:c4:88:4b:fc:4f:91:
                    4e:54:e7:21:32:47:ab:b5:76:c5:4e:44:a7:53:db:
                    7c:b4:d8:48:d7:90:04:9a:00:9f:9d:ac:39:52:60:
                    b3:c9:06:ec:d6:a3:c6:bb:02:e4:2b:62:33:6a:37:
                    6d:42:e3:9a:3c:ff:cc:a1:90:55:e3:ec:f8:7e:6f:
                    ed:8c:d5:5f:c3:d8:02:f0:d2:23:40:9b:00:93:86:
                    ac:89:f9
                Exponent: 65537 (0x10001)
        X509v3 extensions:
            X509v3 Authority Key Identifier: 
                DirName:/C=RU/ST=Moscow State/O=BMSTU/OU=IU4-13/CN=Kruglov Valentine
                serial:D0:94:29:E1:74:7F:8C:5D:63:CC:A2:56:5D:31:CE:BC

            X509v3 Basic Constraints: critical
                CA:TRUE
            X509v3 Key Usage: critical
                Certificate Sign, CRL Sign
            X509v3 Subject Key Identifier: 
                0B:2F:3D:00:75:F3:41:60:E3:B0:2C:3C:59:A2:24:5F:56:3B:8F:99
    Signature Algorithm: sha256WithRSAEncryption
         7d:24:38:42:88:d4:16:75:86:39:4b:f7:3a:96:b9:58:fd:bc:
         94:7a:d3:67:38:34:ee:04:26:d1:a8:76:03:66:c4:ce:6a:48:
         db:7d:cc:4a:79:16:26:25:36:b2:30:7d:81:b1:61:43:7d:fb:
         24:d6:5a:ed:63:eb:38:0d:8f:29:d6:a4:8c:30:b8:39:99:e5:
         af:ce:03:0b:f0:f3:cf:5c:07:14:20:13:97:98:80:ad:91:b9:
         7e:fd:84:96:9a:8a:4c:d8:26:e9:60:60:22:90:41:ee:cb:1f:
         08:da:47:14:f1:a8:c1:ab:05:1c:9c:63:a4:80:0d:e3:a8:fe:
         31:9e:05:dc:0b:60:1d:77:3c:a7:67:9d:41:0a:d2:4c:71:90:
         ee:11:11:62:a8:bd:cc:9a:6b:d4:71:40:bd:ce:ba:a6:67:e5:
         68:01:2c:3b:41:6b:fe:97:90:65:70:8e:4a:ea:31:c3:ef:55:
         bb:bf:80:64:02:4b:40:2c:78:ea:6f:36:65:20:f6:01:80:9d:
         a4:c0:ff:39:63:e6:bf:eb:af:2a:be:3b:cd:bb:7b:c6:76:ae:
         fc:d4:9e:aa:15:29:7f:ee:a8:50:54:02:01:9f:d8:69:f1:48:
         62:6b:0e:02:32:f1:ba:a2:f8:2f:9b:80:76:d5:56:87:b1:87:
         cd:36:18:89:2b:0a:c7:b0:9e:d7:08:e0:ff:9f:01:7b:32:95:
         6b:36:ce:2a:1d:52:f2:90:31:6e:d4:89:5d:eb:e3:b1:38:10:
         10:03:72:b2:1c:a4:91:16:25:6b:55:0e:37:dd:4d:a0:30:be:
         5f:d9:9f:d0:dd:16:7f:e3:37:fb:80:d0:0f:91:a6:64:ff:83:
         64:cf:83:b2:de:6e:79:8a:d0:e7:da:f8:d5:02:b4:94:ee:a5:
         0f:7c:e6:6a:da:99:5a:6a:0e:a9:80:d6:1b:6a:55:7b:c3:d3:
         45:76:8f:6f:92:dc:3c:af:ef:b7:b3:7c:2d:0f:7f:b2:14:0a:
         0a:32:32:79:d2:8a:9e:b0:5f:da:a7:8a:6f:d3:85:5c:24:c8:
         0e:ed:0c:73:16:ce:81:46:71:38:0d:6f:f9:d9:79:38:04:81:
         04:83:d1:bd:6b:23:5a:dd:59:45:40:39:07:b7:9d:94:47:fc:
         ed:00:de:0d:79:83:6c:8e:89:88:71:a4:82:49:f3:63:4c:8b:
         8d:25:a7:d8:bf:e1:d6:a5:16:d5:04:6e:c7:96:c8:f1:75:ca:
         83:9c:24:cd:45:c3:c3:01:62:15:08:24:2b:8c:73:cf:83:38:
         84:68:b8:71:53:75:c8:2d:2b:e4:64:b5:b5:b4:95:d2:db:6f:
         da:6e:c6:2b:a1:c4:c4:e3
-----BEGIN CERTIFICATE-----
MIIGFzCCA/+gAwIBAgIRANCUKeF0f4xdY8yiVl0xzrwwDQYJKoZIhvcNAQELBQAw
YTELMAkGA1UEBhMCUlUxFTATBgNVBAgMDE1vc2NvdyBTdGF0ZTEOMAwGA1UECgwF
Qk1TVFUxDzANBgNVBAsMBklVNC0xMzEaMBgGA1UEAwwRS3J1Z2xvdiBWYWxlbnRp
bmUwHhcNMjExMjE3MTc1ODQwWhcNMjIxMjE3MTc1ODQwWjBhMQswCQYDVQQGEwJS
VTEVMBMGA1UECAwMTW9zY293IFN0YXRlMQ4wDAYDVQQKDAVCTVNUVTEPMA0GA1UE
CwwGSVU0LTEzMRowGAYDVQQDDBFLcnVnbG92IFZhbGVudGluZTCCAiIwDQYJKoZI
hvcNAQEBBQADggIPADCCAgoCggIBAMDmwJ7AJi4OoLjs9FxjXAcOO/k77htnJDM3
WGbDcphDIXWYQX8c5VCSXnpheUaZdUZKQTu1zpKSLMsfs9twjQ55ocyUnc3gUrMX
pfgAkSuSpCbayJdKgCQU19PKTouRrl0IHNv6B6gFkPdTtSkZ7OVnyXjbDi+adc/6
w2fk0awdPEZNZZR3asJUSMS7fwm7Fo3UGIFvMKVblC3d895Zgp4CY1x1U9CU/d3H
pLGQCxLHiwXM2E+esOEpf8S0aC1nO+eNRVS8+6Qij0O6wHAUsa0E7TgNA50usKrp
yEd5m22WN9uRLvVIrhb/a2cIcRlCoH7S1IcvDBGOh+/a/9Op8PmWg6Z/kHwcIdSc
DoWxsI60l5u9XsGJ9mlc7ALVzJXuR9oHvJ8KwDwuIqn6BqlhZlHjO6BWMVOQuP2/
flgyqCd9Ca/Wdh1nF3WsvHiiHXkRtm9eIDJBpHrTUsU63viAJBwYQ/JJ2HE9H/AU
aghqPgciUd0GaEKV7h/m9L5t6D5WCbtQyFm+zApO0ptDBOCRYbXCUQoJFDVSL+8P
sO/z9SHQWhBiobenMtK+Xs7gxIhL/E+RTlTnITJHq7V2xU5Ep1PbfLTYSNeQBJoA
n52sOVJgs8kG7NajxrsC5CtiM2o3bULjmjz/zKGQVePs+H5v7YzVX8PYAvDSI0Cb
AJOGrIn5AgMBAAGjgckwgcYwgYMGA1UdIwR8MHqhZaRjMGExCzAJBgNVBAYTAlJV
MRUwEwYDVQQIDAxNb3Njb3cgU3RhdGUxDjAMBgNVBAoMBUJNU1RVMQ8wDQYDVQQL
DAZJVTQtMTMxGjAYBgNVBAMMEUtydWdsb3YgVmFsZW50aW5lghEA0JQp4XR/jF1j
zKJWXTHOvDAPBgNVHRMBAf8EBTADAQH/MA4GA1UdDwEB/wQEAwIBBjAdBgNVHQ4E
FgQUCy89AHXzQWDjsCw8WaIkX1Y7j5kwDQYJKoZIhvcNAQELBQADggIBAH0kOEKI
1BZ1hjlL9zqWuVj9vJR602c4NO4EJtGodgNmxM5qSNt9zEp5FiYlNrIwfYGxYUN9
+yTWWu1j6zgNjynWpIwwuDmZ5a/OAwvw889cBxQgE5eYgK2RuX79hJaaikzYJulg
YCKQQe7LHwjaRxTxqMGrBRycY6SADeOo/jGeBdwLYB13PKdnnUEK0kxxkO4REWKo
vcyaa9RxQL3OuqZn5WgBLDtBa/6XkGVwjkrqMcPvVbu/gGQCS0AseOpvNmUg9gGA
naTA/zlj5r/rryq+O827e8Z2rvzUnqoVKX/uqFBUAgGf2GnxSGJrDgIy8bqi+C+b
gHbVVoexh802GIkrCsewntcI4P+fAXsylWs2ziodUvKQMW7UiV3r47E4EBADcrIc
pJEWJWtVDjfdTaAwvl/Zn9DdFn/jN/uA0A+RpmT/g2TPg7LebnmK0Ofa+NUCtJTu
pQ985mramVpqDqmA1htqVXvD00V2j2+S3Dyv77ezfC0Pf7IUCgoyMnnSip6wX9qn
im/ThVwkyA7tDHMWzoFGcTgNb/nZeTgEgQSD0b1rI1rdWUVAOQe3nZRH/O0A3g15
g2yOiYhxpIJJ82NMi40lp9i/4dalFtUEbseWyPF1yoOcJM1Fw8MBYhUIJCuMc8+D
OIRouHFTdcgtK+RktbW0ldLbb9puxiuhxMTj
-----END CERTIFICATE-----
